target datalayout = "e-m:e-p270:32:32-p271:32:32-p272:64:64-i64:64-i128:128-f80:128-n8:16:32:64-S128"
target triple = "x86_64-pc-linux-gnu"

%struct.expert_field = type { i32, i32 }
%struct.nstime_t = type { i64, i32 }
%struct._packet_info = type { ptr, ptr, i32, i32, %struct.nstime_t, %struct.nstime_t, %struct.nstime_t, i8, ptr, ptr, ptr, ptr, %struct._address, %struct._address, %struct._address, %struct._address, %struct._address, %struct._address, i32, ptr, i8, [3 x i8], %struct.anon, i32, i32, i32, i32, ptr, i8, ptr, ptr, i16, i16, i32, i32, i16, i32, i32, ptr, ptr, ptr, i8, i8, i16, i16, i16, i32, i16, i16, ptr, ptr, ptr, ptr, ptr, i32, i32 }
%struct._address = type { i32, i32, ptr, ptr }
%struct.anon = type { i8, [3 x i8] }

@hf_pfcp_cp_ip_address_ipv4 = internal global i32 0, align 4
@hf_pfcp_cp_ip_address_ipv6 = internal global i32 0, align 4
@ei_pfcp_ie_data_not_decoded = internal global %struct.expert_field zeroinitializer, align 4
@.str.2656 = private unnamed_addr constant [10 x i8] c", IPv4 %s\00", align 1
@.str.2657 = private unnamed_addr constant [10 x i8] c", IPv6 %s\00", align 1
@dissect_pfcp_cp_ip_address.pfcp_cp_ip_address_flags = internal constant [4 x ptr] [ptr @hf_pfcp_spare_b7_b2, ptr @hf_pfcp_b1_v4, ptr @hf_pfcp_b0_v6, ptr null], align 16

; Function Attrs: null_pointer_is_valid sspstrong uwtable
define internal void @dissect_pfcp_cp_ip_address(ptr noundef %0, ptr noundef %1, ptr noundef %2, ptr noundef %3, i16 noundef zeroext %4, i8 noundef zeroext %5, ptr noundef %6) #0 {
  %8 = alloca ptr, align 8
  %9 = alloca ptr, align 8
  %10 = alloca ptr, align 8
  %11 = alloca ptr, align 8
  %12 = alloca i16, align 2
  %13 = alloca i8, align 1
  %14 = alloca ptr, align 8
  %15 = alloca i32, align 4
  %16 = alloca i64, align 8
  store ptr %0, ptr %8, align 8
  store ptr %1, ptr %9, align 8
  store ptr %2, ptr %10, align 8
  store ptr %3, ptr %11, align 8
  store i16 %4, ptr %12, align 2
  store i8 %5, ptr %13, align 1
  store ptr %6, ptr %14, align 8
  call void @llvm.lifetime.start.p0(i64 4, ptr %15) #13
  store i32 0, ptr %15, align 4
  call void @llvm.lifetime.start.p0(i64 8, ptr %16) #13
  %17 = load ptr, ptr %10, align 8
  %18 = load ptr, ptr %8, align 8
  %19 = load i32, ptr %15, align 4
  call void @proto_tree_add_bitmask_list_ret_uint64(ptr noundef %17, ptr noundef %18, i32 noundef %19, i32 noundef 1, ptr noundef @dissect_pfcp_cp_ip_address.pfcp_cp_ip_address_flags, i32 noundef 0, ptr noundef %16)
  %20 = load i32, ptr %15, align 4
  %21 = add i32 %20, 1
  store i32 %21, ptr %15, align 4
  %22 = load i64, ptr %16, align 8
  %23 = and i64 %22, 2
  %24 = icmp ne i64 %23, 0
  br i1 %24, label %25, label %40

25:                                               ; preds = %7
  %26 = load ptr, ptr %10, align 8
  %27 = load i32, ptr @hf_pfcp_cp_ip_address_ipv4, align 4
  %28 = load ptr, ptr %8, align 8
  %29 = load i32, ptr %15, align 4
  %30 = call ptr @proto_tree_add_item(ptr noundef %26, i32 noundef %27, ptr noundef %28, i32 noundef %29, i32 noundef 4, i32 noundef 0)
  %31 = load ptr, ptr %11, align 8
  %32 = load ptr, ptr %9, align 8
  %33 = getelementptr inbounds nuw %struct._packet_info, ptr %32, i32 0, i32 51
  %34 = load ptr, ptr %33, align 8
  %35 = load ptr, ptr %8, align 8
  %36 = load i32, ptr %15, align 4
  %37 = call ptr @tvb_address_to_str(ptr noundef %34, ptr noundef %35, i32 noundef 2, i32 noundef %36)
  call void (ptr, ptr, ...) @proto_item_append_text(ptr noundef %31, ptr noundef @.str.2656, ptr noundef %37)
  %38 = load i32, ptr %15, align 4
  %39 = add i32 %38, 4
  store i32 %39, ptr %15, align 4
  br label %40

40:                                               ; preds = %25, %7
  %41 = load i64, ptr %16, align 8
  %42 = and i64 %41, 1
  %43 = icmp ne i64 %42, 0
  br i1 %43, label %44, label %59

44:                                               ; preds = %40
  %45 = load ptr, ptr %10, align 8
  %46 = load i32, ptr @hf_pfcp_cp_ip_address_ipv6, align 4
  %47 = load ptr, ptr %8, align 8
  %48 = load i32, ptr %15, align 4
  %49 = call ptr @proto_tree_add_item(ptr noundef %45, i32 noundef %46, ptr noundef %47, i32 noundef %48, i32 noundef 16, i32 noundef 0)
  %50 = load ptr, ptr %11, align 8
  %51 = load ptr, ptr %9, align 8
  %52 = getelementptr inbounds nuw %struct._packet_info, ptr %51, i32 0, i32 51
  %53 = load ptr, ptr %52, align 8
  %54 = load ptr, ptr %8, align 8
  %55 = load i32, ptr %15, align 4
  %56 = call ptr @tvb_address_to_str(ptr noundef %53, ptr noundef %54, i32 noundef 3, i32 noundef %55)
  call void (ptr, ptr, ...) @proto_item_append_text(ptr noundef %50, ptr noundef @.str.2657, ptr noundef %56)
  %57 = load i32, ptr %15, align 4
  %58 = add i32 %57, 16
  store i32 %58, ptr %15, align 4
  br label %59

59:                                               ; preds = %44, %40
  %60 = load i32, ptr %15, align 4
  %61 = load i16, ptr %12, align 2
  %62 = zext i16 %61 to i32
  %63 = icmp slt i32 %60, %62
  br i1 %63, label %64, label %70

64:                                               ; preds = %59
  %65 = load ptr, ptr %10, align 8
  %66 = load ptr, ptr %9, align 8
  %67 = load ptr, ptr %8, align 8
  %68 = load i32, ptr %15, align 4
  %69 = call ptr @proto_tree_add_expert(ptr noundef %65, ptr noundef %66, ptr noundef @ei_pfcp_ie_data_not_decoded, ptr noundef %67, i32 noundef %68, i32 noundef -1)
  br label %70

70:                                               ; preds = %64, %59
  call void @llvm.lifetime.end.p0(i64 8, ptr %16) #13
  call void @llvm.lifetime.end.p0(i64 4, ptr %15) #13
  ret void
}